target datalayout = "e-m:e-p270:32:32-p271:32:32-p272:64:64-i64:64-i128:128-f80:128-n8:16:32:64-S128"
target triple = "x86_64-unknown-linux-gnu"

%class.btMatrix3x3 = type { [3 x %class.btVector3] }
%class.btVector3 = type { [4 x float] }
%class.btDeformableContactConstraint = type { ptr, i8, ptr, %class.btVector3 }
%class.btCollisionObject = type <{ ptr, %class.btTransform, %class.btTransform, %class.btVector3, %class.btVector3, %class.btVector3, i32, float, ptr, ptr, ptr, ptr, i32, i32, i32, i32, i32, float, float, float, float, float, float, float, i32, [4 x i8], ptr, i32, i32, i32, float, float, float, i32, [4 x i8], %class.btAlignedObjectArray, i32, %class.btVector3, [4 x i8] }>
%class.btTransform = type { %class.btMatrix3x3, %class.btVector3 }
%class.btAlignedObjectArray = type <{ %class.btAlignedAllocator, [3 x i8], i32, i32, [4 x i8], ptr, i8, [7 x i8] }>
%class.btAlignedAllocator = type { i8 }
%class.btReducedDeformableRigidContactConstraint = type <{ %class.btDeformableRigidContactConstraint, i8, i8, [2 x i8], i32, i32, [4 x i8], ptr, ptr, float, float, float, float, float, float, float, float, float, float, float, float, float, float, float, float, float, %class.btVector3, %class.btVector3, %class.btVector3, %class.btVector3, %class.btVector3, %class.btVector3, %class.btMatrix3x3, %class.btVector3, %class.btVector3, %class.btVector3, %class.btVector3, %class.btVector3, %class.btVector3, [4 x i8] }>
%class.btDeformableRigidContactConstraint = type { %class.btDeformableContactConstraint, %class.btVector3, %class.btVector3, float, float, i8, ptr }
%struct.btContactSolverInfoData = type { float, float, float, float, float, i32, float, float, float, float, float, float, float, float, float, float, i32, float, float, float, float, float, i32, i32, i32, float, float, float, float, i8, i8, i32, i32 }
%"class.btSoftBody::DeformableRigidContact" = type { %"struct.btSoftBody::sCti", %class.btMatrix3x3, %class.btVector3, float, float, float, %class.btMatrix3x3, [4 x i8], %struct.btMultiBodyJacobianData, %struct.btMultiBodyJacobianData, %struct.btMultiBodyJacobianData, %class.btVector3, %class.btVector3 }
%"struct.btSoftBody::sCti" = type <{ ptr, %class.btVector3, %class.btVector3, float, %class.btVector3, [4 x i8] }>
%struct.btMultiBodyJacobianData = type <{ %class.btAlignedObjectArray.12, %class.btAlignedObjectArray.12, %class.btAlignedObjectArray.12, %class.btAlignedObjectArray.12, %class.btAlignedObjectArray.8, %class.btAlignedObjectArray.112, ptr, i32, [4 x i8] }>
%class.btAlignedObjectArray.12 = type <{ %class.btAlignedAllocator.13, [3 x i8], i32, i32, [4 x i8], ptr, i8, [7 x i8] }>
%class.btAlignedAllocator.13 = type { i8 }
%class.btAlignedObjectArray.8 = type <{ %class.btAlignedAllocator.9, [3 x i8], i32, i32, [4 x i8], ptr, i8, [7 x i8] }>
%class.btAlignedAllocator.9 = type { i8 }
%class.btAlignedObjectArray.112 = type <{ %class.btAlignedAllocator.113, [3 x i8], i32, i32, [4 x i8], ptr, i8, [7 x i8] }>
%class.btAlignedAllocator.113 = type { i8 }

; Function Attrs: mustprogress nounwind uwtable
define linkonce_odr dso_local void @_ZN29btDeformableContactConstraintD2Ev(ptr noundef nonnull align 8 dereferenceable(40) %this) unnamed_addr #1 comdat align 2 {
entry:
  %this.addr = alloca ptr, align 8
  store ptr %this, ptr %this.addr, align 8
  ret void
}

; Function Attrs: mustprogress nounwind uwtable
define linkonce_odr dso_local void @_ZN34btDeformableRigidContactConstraintD2Ev(ptr noundef nonnull align 8 dereferenceable(96) %this) unnamed_addr #1 comdat align 2 {
entry:
  %this.addr = alloca ptr, align 8
  store ptr %this, ptr %this.addr, align 8
  %this1 = load ptr, ptr %this.addr, align 8
  call void @_ZN29btDeformableContactConstraintD2Ev(ptr noundef nonnull align 8 dereferenceable(40) %this1) #4
  ret void
}

; Function Attrs: mustprogress nounwind uwtable
define linkonce_odr dso_local noundef i32 @_ZNK17btCollisionObject15getInternalTypeEv(ptr noundef nonnull align 8 dereferenceable(372) %this) #1 comdat align 2 {
entry:
  %this.addr = alloca ptr, align 8
  store ptr %this, ptr %this.addr, align 8
  %this1 = load ptr, ptr %this.addr, align 8
  %m_internalType = getelementptr inbounds %class.btCollisionObject, ptr %this1, i32 0, i32 24
  %0 = load i32, ptr %m_internalType, align 8
  ret i32 %0
}

; Function Attrs: mustprogress nounwind uwtable
define linkonce_odr dso_local noundef zeroext i1 @_ZNK17btCollisionObject14isStaticObjectEv(ptr noundef nonnull align 8 dereferenceable(372) %this) #1 comdat align 2 {
entry:
  %this.addr = alloca ptr, align 8
  store ptr %this, ptr %this.addr, align 8
  %this1 = load ptr, ptr %this.addr, align 8
  %m_collisionFlags = getelementptr inbounds %class.btCollisionObject, ptr %this1, i32 0, i32 12
  %0 = load i32, ptr %m_collisionFlags, align 8
  %and = and i32 %0, 1
  %cmp = icmp ne i32 %and, 0
  ret i1 %cmp
}

; Function Attrs: mustprogress uwtable
define linkonce_odr dso_local void @_ZN11btMatrix3x3C2Ev(ptr noundef nonnull align 4 dereferenceable(48) %this) unnamed_addr #6 comdat align 2 {
entry:
  %this.addr = alloca ptr, align 8
  store ptr %this, ptr %this.addr, align 8
  %this1 = load ptr, ptr %this.addr, align 8
  %m_el = getelementptr inbounds %class.btMatrix3x3, ptr %this1, i32 0, i32 0
  %array.begin = getelementptr inbounds [3 x %class.btVector3], ptr %m_el, i32 0, i32 0
  %arrayctor.end = getelementptr inbounds %class.btVector3, ptr %array.begin, i64 3
  br label %arrayctor.loop

arrayctor.loop:                                   ; preds = %arrayctor.loop, %entry
  %arrayctor.cur = phi ptr [ %array.begin, %entry ], [ %arrayctor.next, %arrayctor.loop ]
  call void @_ZN9btVector3C2Ev(ptr noundef nonnull align 4 dereferenceable(16) %arrayctor.cur)
  %arrayctor.next = getelementptr inbounds %class.btVector3, ptr %arrayctor.cur, i64 1
  %arrayctor.done = icmp eq ptr %arrayctor.next, %arrayctor.end
  br i1 %arrayctor.done, label %arrayctor.cont, label %arrayctor.loop

arrayctor.cont:                                   ; preds = %arrayctor.loop
  ret void
}

; Function Attrs: mustprogress nounwind uwtable
define linkonce_odr dso_local void @_ZN9btVector3C2Ev(ptr noundef nonnull align 4 dereferenceable(16) %this) unnamed_addr #1 comdat align 2 {
entry:
  %this.addr = alloca ptr, align 8
  store ptr %this, ptr %this.addr, align 8
  ret void
}

; Function Attrs: mustprogress uwtable
define dso_local void @_ZN41btReducedDeformableRigidContactConstraintC2EP23btReducedDeformableBodyRKN10btSoftBody22DeformableRigidContactERK19btContactSolverInfof(ptr noundef nonnull align 8 dereferenceable(436) %this, ptr noundef %rsb, ptr noundef nonnull align 8 dereferenceable(848) %c, ptr noundef nonnull align 4 dereferenceable(128) %infoGlobal, float noundef %dt) unnamed_addr #6 align 2 personality ptr @__gxx_personality_v0 {
entry:
  %this.addr = alloca ptr, align 8
  %rsb.addr = alloca ptr, align 8
  %c.addr = alloca ptr, align 8
  %infoGlobal.addr = alloca ptr, align 8
  %dt.addr = alloca float, align 4
  %exn.slot = alloca ptr, align 8
  %ehselector.slot = alloca i32, align 4
  store ptr %this, ptr %this.addr, align 8
  store ptr %rsb, ptr %rsb.addr, align 8
  store ptr %c, ptr %c.addr, align 8
  store ptr %infoGlobal, ptr %infoGlobal.addr, align 8
  store float %dt, ptr %dt.addr, align 4
  %this1 = load ptr, ptr %this.addr, align 8
  %0 = load ptr, ptr %c.addr, align 8
  %1 = load ptr, ptr %infoGlobal.addr, align 8
  call void @_ZN34btDeformableRigidContactConstraintC2ERKN10btSoftBody22DeformableRigidContactERK19btContactSolverInfo(ptr noundef nonnull align 8 dereferenceable(96) %this1, ptr noundef nonnull align 8 dereferenceable(848) %0, ptr noundef nonnull align 4 dereferenceable(128) %1)
  store ptr getelementptr inbounds ({ [16 x ptr] }, ptr @_ZTV41btReducedDeformableRigidContactConstraint, i32 0, i32 0, i32 2), ptr %this1, align 8
  %m_rsb = getelementptr inbounds %class.btReducedDeformableRigidContactConstraint, ptr %this1, i32 0, i32 7
  %2 = load ptr, ptr %rsb.addr, align 8
  store ptr %2, ptr %m_rsb, align 8
  %m_dt = getelementptr inbounds %class.btReducedDeformableRigidContactConstraint, ptr %this1, i32 0, i32 9
  %3 = load float, ptr %dt.addr, align 4
  store float %3, ptr %m_dt, align 8
  %m_contactNormalA = getelementptr inbounds %class.btReducedDeformableRigidContactConstraint, ptr %this1, i32 0, i32 26
  invoke void @_ZN9btVector3C2Ev(ptr noundef nonnull align 4 dereferenceable(16) %m_contactNormalA)
          to label %invoke.cont unwind label %lpad

invoke.cont:                                      ; preds = %entry
  %m_contactNormalB = getelementptr inbounds %class.btReducedDeformableRigidContactConstraint, ptr %this1, i32 0, i32 27
  invoke void @_ZN9btVector3C2Ev(ptr noundef nonnull align 4 dereferenceable(16) %m_contactNormalB)
          to label %invoke.cont2 unwind label %lpad

invoke.cont2:                                     ; preds = %invoke.cont
  %m_contactTangent = getelementptr inbounds %class.btReducedDeformableRigidContactConstraint, ptr %this1, i32 0, i32 28
  invoke void @_ZN9btVector3C2Ev(ptr noundef nonnull align 4 dereferenceable(16) %m_contactTangent)
          to label %invoke.cont3 unwind label %lpad

invoke.cont3:                                     ; preds = %invoke.cont2
  %m_contactTangent2 = getelementptr inbounds %class.btReducedDeformableRigidContactConstraint, ptr %this1, i32 0, i32 29
  invoke void @_ZN9btVector3C2Ev(ptr noundef nonnull align 4 dereferenceable(16) %m_contactTangent2)
          to label %invoke.cont4 unwind label %lpad

invoke.cont4:                                     ; preds = %invoke.cont3
  %m_relPosA = getelementptr inbounds %class.btReducedDeformableRigidContactConstraint, ptr %this1, i32 0, i32 30
  invoke void @_ZN9btVector3C2Ev(ptr noundef nonnull align 4 dereferenceable(16) %m_relPosA)
          to label %invoke.cont5 unwind label %lpad

invoke.cont5:                                     ; preds = %invoke.cont4
  %m_relPosB = getelementptr inbounds %class.btReducedDeformableRigidContactConstraint, ptr %this1, i32 0, i32 31
  invoke void @_ZN9btVector3C2Ev(ptr noundef nonnull align 4 dereferenceable(16) %m_relPosB)
          to label %invoke.cont6 unwind label %lpad

invoke.cont6:                                     ; preds = %invoke.cont5
  %m_impulseFactor = getelementptr inbounds %class.btReducedDeformableRigidContactConstraint, ptr %this1, i32 0, i32 32
  invoke void @_ZN11btMatrix3x3C2Ev(ptr noundef nonnull align 4 dereferenceable(48) %m_impulseFactor)
          to label %invoke.cont7 unwind label %lpad

invoke.cont7:                                     ; preds = %invoke.cont6
  %m_bufferVelocityA = getelementptr inbounds %class.btReducedDeformableRigidContactConstraint, ptr %this1, i32 0, i32 33
  invoke void @_ZN9btVector3C2Ev(ptr noundef nonnull align 4 dereferenceable(16) %m_bufferVelocityA)
          to label %invoke.cont8 unwind label %lpad

invoke.cont8:                                     ; preds = %invoke.cont7
  %m_bufferVelocityB = getelementptr inbounds %class.btReducedDeformableRigidContactConstraint, ptr %this1, i32 0, i32 34
  invoke void @_ZN9btVector3C2Ev(ptr noundef nonnull align 4 dereferenceable(16) %m_bufferVelocityB)
          to label %invoke.cont9 unwind label %lpad

invoke.cont9:                                     ; preds = %invoke.cont8
  %m_linearComponentNormal = getelementptr inbounds %class.btReducedDeformableRigidContactConstraint, ptr %this1, i32 0, i32 35
  invoke void @_ZN9btVector3C2Ev(ptr noundef nonnull align 4 dereferenceable(16) %m_linearComponentNormal)
          to label %invoke.cont10 unwind label %lpad

invoke.cont10:                                    ; preds = %invoke.cont9
  %m_angularComponentNormal = getelementptr inbounds %class.btReducedDeformableRigidContactConstraint, ptr %this1, i32 0, i32 36
  invoke void @_ZN9btVector3C2Ev(ptr noundef nonnull align 4 dereferenceable(16) %m_angularComponentNormal)
          to label %invoke.cont11 unwind label %lpad

invoke.cont11:                                    ; preds = %invoke.cont10
  %m_linearComponentTangent = getelementptr inbounds %class.btReducedDeformableRigidContactConstraint, ptr %this1, i32 0, i32 37
  invoke void @_ZN9btVector3C2Ev(ptr noundef nonnull align 4 dereferenceable(16) %m_linearComponentTangent)
          to label %invoke.cont12 unwind label %lpad

invoke.cont12:                                    ; preds = %invoke.cont11
  %m_angularComponentTangent = getelementptr inbounds %class.btReducedDeformableRigidContactConstraint, ptr %this1, i32 0, i32 38
  invoke void @_ZN9btVector3C2Ev(ptr noundef nonnull align 4 dereferenceable(16) %m_angularComponentTangent)
          to label %invoke.cont13 unwind label %lpad

invoke.cont13:                                    ; preds = %invoke.cont12
  %m_nodeQueryIndex = getelementptr inbounds %class.btReducedDeformableRigidContactConstraint, ptr %this1, i32 0, i32 4
  store i32 0, ptr %m_nodeQueryIndex, align 4
  %m_appliedNormalImpulse = getelementptr inbounds %class.btReducedDeformableRigidContactConstraint, ptr %this1, i32 0, i32 10
  store float 0.000000e+00, ptr %m_appliedNormalImpulse, align 4
  %m_appliedTangentImpulse = getelementptr inbounds %class.btReducedDeformableRigidContactConstraint, ptr %this1, i32 0, i32 11
  store float 0.000000e+00, ptr %m_appliedTangentImpulse, align 8
  %m_rhs = getelementptr inbounds %class.btReducedDeformableRigidContactConstraint, ptr %this1, i32 0, i32 18
  store float 0.000000e+00, ptr %m_rhs, align 4
  %m_rhs_tangent = getelementptr inbounds %class.btReducedDeformableRigidContactConstraint, ptr %this1, i32 0, i32 19
  store float 0.000000e+00, ptr %m_rhs_tangent, align 8
  %4 = load ptr, ptr %infoGlobal.addr, align 8
  %m_deformable_cfm = getelementptr inbounds %struct.btContactSolverInfoData, ptr %4, i32 0, i32 11
  %5 = load float, ptr %m_deformable_cfm, align 4
  %m_cfm = getelementptr inbounds %class.btReducedDeformableRigidContactConstraint, ptr %this1, i32 0, i32 21
  store float %5, ptr %m_cfm, align 8
  %m_cfm_friction = getelementptr inbounds %class.btReducedDeformableRigidContactConstraint, ptr %this1, i32 0, i32 22
  store float 0.000000e+00, ptr %m_cfm_friction, align 4
  %6 = load ptr, ptr %infoGlobal.addr, align 8
  %m_deformable_erp = getelementptr inbounds %struct.btContactSolverInfoData, ptr %6, i32 0, i32 10
  %7 = load float, ptr %m_deformable_erp, align 4
  %m_erp = getelementptr inbounds %class.btReducedDeformableRigidContactConstraint, ptr %this1, i32 0, i32 23
  store float %7, ptr %m_erp, align 8
  %8 = load ptr, ptr %infoGlobal.addr, align 8
  %m_deformable_erp14 = getelementptr inbounds %struct.btContactSolverInfoData, ptr %8, i32 0, i32 10
  %9 = load float, ptr %m_deformable_erp14, align 4
  %m_erp_friction = getelementptr inbounds %class.btReducedDeformableRigidContactConstraint, ptr %this1, i32 0, i32 24
  store float %9, ptr %m_erp_friction, align 4
  %10 = load ptr, ptr %infoGlobal.addr, align 8
  %m_friction = getelementptr inbounds %struct.btContactSolverInfoData, ptr %10, i32 0, i32 2
  %11 = load float, ptr %m_friction, align 4
  %m_friction15 = getelementptr inbounds %class.btReducedDeformableRigidContactConstraint, ptr %this1, i32 0, i32 25
  store float %11, ptr %m_friction15, align 8
  %m_contact = getelementptr inbounds %class.btDeformableRigidContactConstraint, ptr %this1, i32 0, i32 6
  %12 = load ptr, ptr %m_contact, align 8
  %m_cti = getelementptr inbounds %"class.btSoftBody::DeformableRigidContact", ptr %12, i32 0, i32 0
  %m_colObj = getelementptr inbounds %"struct.btSoftBody::sCti", ptr %m_cti, i32 0, i32 0
  %13 = load ptr, ptr %m_colObj, align 8
  %call = invoke noundef zeroext i1 @_ZNK17btCollisionObject14isStaticObjectEv(ptr noundef nonnull align 8 dereferenceable(372) %13)
          to label %invoke.cont16 unwind label %lpad

invoke.cont16:                                    ; preds = %invoke.cont13
  %m_collideStatic = getelementptr inbounds %class.btReducedDeformableRigidContactConstraint, ptr %this1, i32 0, i32 1
  %frombool = zext i1 %call to i8
  store i8 %frombool, ptr %m_collideStatic, align 8
  %m_contact17 = getelementptr inbounds %class.btDeformableRigidContactConstraint, ptr %this1, i32 0, i32 6
  %14 = load ptr, ptr %m_contact17, align 8
  %m_cti18 = getelementptr inbounds %"class.btSoftBody::DeformableRigidContact", ptr %14, i32 0, i32 0
  %m_colObj19 = getelementptr inbounds %"struct.btSoftBody::sCti", ptr %m_cti18, i32 0, i32 0
  %15 = load ptr, ptr %m_colObj19, align 8
  %call21 = invoke noundef i32 @_ZNK17btCollisionObject15getInternalTypeEv(ptr noundef nonnull align 8 dereferenceable(372) %15)
          to label %invoke.cont20 unwind label %lpad

invoke.cont20:                                    ; preds = %invoke.cont16
  %cmp = icmp eq i32 %call21, 64
  %m_collideMultibody = getelementptr inbounds %class.btReducedDeformableRigidContactConstraint, ptr %this1, i32 0, i32 2
  %frombool22 = zext i1 %cmp to i8
  store i8 %frombool22, ptr %m_collideMultibody, align 1
  ret void

lpad:                                             ; preds = %invoke.cont16, %invoke.cont13, %invoke.cont12, %invoke.cont11, %invoke.cont10, %invoke.cont9, %invoke.cont8, %invoke.cont7, %invoke.cont6, %invoke.cont5, %invoke.cont4, %invoke.cont3, %invoke.cont2, %invoke.cont, %entry
  %16 = landingpad { ptr, i32 }
          cleanup
  %17 = extractvalue { ptr, i32 } %16, 0
  store ptr %17, ptr %exn.slot, align 8
  %18 = extractvalue { ptr, i32 } %16, 1
  store i32 %18, ptr %ehselector.slot, align 4
  call void @_ZN34btDeformableRigidContactConstraintD2Ev(ptr noundef nonnull align 8 dereferenceable(96) %this1) #4
  br label %eh.resume

eh.resume:                                        ; preds = %lpad
  %exn = load ptr, ptr %exn.slot, align 8
  %sel = load i32, ptr %ehselector.slot, align 4
  %lpad.val = insertvalue { ptr, i32 } poison, ptr %exn, 0
  %lpad.val23 = insertvalue { ptr, i32 } %lpad.val, i32 %sel, 1
  resume { ptr, i32 } %lpad.val23
}