; Function Attrs: mustprogress uwtable
define dso_local void @_ZN41btReducedDeformableRigidContactConstraintC2EP23btReducedDeformableBodyRKN10btSoftBody22DeformableRigidContactERK19btContactSolverInfof(ptr noundef nonnull align 8 dereferenceable(436) %this, ptr noundef %rsb, ptr noundef nonnull align 8 dereferenceable(848) %c, ptr noundef nonnull align 4 dereferenceable(128) %infoGlobal, float noundef %dt) unnamed_addr #5 align 2 personality ptr @__gxx_personality_v0 {
invoke.cont7:
  tail call void @_ZN34btDeformableRigidContactConstraintC2ERKN10btSoftBody22DeformableRigidContactERK19btContactSolverInfo(ptr noundef nonnull align 8 dereferenceable(96) %this, ptr noundef nonnull align 8 dereferenceable(848) %c, ptr noundef nonnull align 4 dereferenceable(128) %infoGlobal)
  store ptr getelementptr inbounds ({ [16 x ptr] }, ptr @_ZTV41btReducedDeformableRigidContactConstraint, i64 0, i32 0, i64 2), ptr %this, align 8
  %m_rsb = getelementptr inbounds i8, ptr %this, i64 112
  store ptr %rsb, ptr %m_rsb, align 8
  %m_dt = getelementptr inbounds i8, ptr %this, i64 128
  store float %dt, ptr %m_dt, align 8
  %m_nodeQueryIndex = getelementptr inbounds i8, ptr %this, i64 100
  store i32 0, ptr %m_nodeQueryIndex, align 4
  %m_appliedNormalImpulse = getelementptr inbounds i8, ptr %this, i64 132
  store <2 x float> zeroinitializer, ptr %m_appliedNormalImpulse, align 4
  %m_rhs = getelementptr inbounds i8, ptr %this, i64 164
  store <2 x float> zeroinitializer, ptr %m_rhs, align 4
  %m_deformable_cfm = getelementptr inbounds i8, ptr %infoGlobal, i64 44
  %0 = load float, ptr %m_deformable_cfm, align 4
  %m_cfm = getelementptr inbounds i8, ptr %this, i64 176
  store float %0, ptr %m_cfm, align 8
  %m_cfm_friction = getelementptr inbounds i8, ptr %this, i64 180
  store float 0.000000e+00, ptr %m_cfm_friction, align 4
  %m_deformable_erp = getelementptr inbounds i8, ptr %infoGlobal, i64 40
  %1 = load float, ptr %m_deformable_erp, align 4
  %m_erp = getelementptr inbounds i8, ptr %this, i64 184
  store float %1, ptr %m_erp, align 8
  %m_erp_friction = getelementptr inbounds i8, ptr %this, i64 188
  store float %1, ptr %m_erp_friction, align 4
  %m_friction = getelementptr inbounds i8, ptr %infoGlobal, i64 8
  %2 = load float, ptr %m_friction, align 4
  %m_friction15 = getelementptr inbounds i8, ptr %this, i64 192
  store float %2, ptr %m_friction15, align 8
  %m_contact = getelementptr inbounds i8, ptr %this, i64 88
  %3 = load ptr, ptr %m_contact, align 8
  %4 = load ptr, ptr %3, align 8
  %m_collisionFlags.i = getelementptr inbounds i8, ptr %4, i64 224
  %5 = load i32, ptr %m_collisionFlags.i, align 8
  %m_collideStatic = getelementptr inbounds i8, ptr %this, i64 96
  %6 = trunc i32 %5 to i8
  %frombool = and i8 %6, 1
  store i8 %frombool, ptr %m_collideStatic, align 8
  %7 = load ptr, ptr %3, align 8
  %m_internalType.i = getelementptr inbounds i8, ptr %7, i64 272
  %8 = load i32, ptr %m_internalType.i, align 8
  %cmp = icmp eq i32 %8, 64
  %m_collideMultibody = getelementptr inbounds i8, ptr %this, i64 97
  %frombool22 = zext i1 %cmp to i8
  store i8 %frombool22, ptr %m_collideMultibody, align 1
  ret void
}